target datalayout = "e-m:e-p270:32:32-p271:32:32-p272:64:64-i64:64-i128:128-f80:128-n8:16:32:64-S128"
target triple = "x86_64-pc-linux-gnu"

%struct.lxb_html_tree = type { ptr, ptr, ptr, ptr, ptr, ptr, ptr, %struct.lxb_html_tree_pending_table_t, ptr, i8, i8, i8, i8, i8, i8, ptr, ptr, ptr, i32, i64 }
%struct.lxb_html_tree_pending_table_t = type { ptr, i8 }
%struct.lexbor_str_t = type { ptr, i64 }

; Function Attrs: nounwind uwtable
define hidden i32 @lxb_html_tree_insertion_mode_in_body_text_append(ptr noundef %0, ptr noundef %1) #0 {
  %3 = alloca i32, align 4
  %4 = alloca ptr, align 8
  %5 = alloca ptr, align 8
  %6 = alloca ptr, align 8
  %7 = alloca ptr, align 8
  store ptr %0, ptr %4, align 8, !tbaa !4
  store ptr %1, ptr %5, align 8, !tbaa !9
  %8 = load ptr, ptr %4, align 8, !tbaa !4
  %9 = call i32 @lxb_html_tree_active_formatting_reconstruct_elements(ptr noundef %8)
  %10 = load ptr, ptr %4, align 8, !tbaa !4
  %11 = getelementptr inbounds nuw %struct.lxb_html_tree, ptr %10, i32 0, i32 18
  store i32 %9, ptr %11, align 8, !tbaa !25
  %12 = load ptr, ptr %4, align 8, !tbaa !4
  %13 = getelementptr inbounds nuw %struct.lxb_html_tree, ptr %12, i32 0, i32 18
  %14 = load i32, ptr %13, align 8, !tbaa !25
  %15 = icmp ne i32 %14, 0
  br i1 %15, label %16, label %20

16:                                               ; preds = %2
  %17 = load ptr, ptr %4, align 8, !tbaa !4
  %18 = getelementptr inbounds nuw %struct.lxb_html_tree, ptr %17, i32 0, i32 18
  %19 = load i32, ptr %18, align 8, !tbaa !25
  store i32 %19, ptr %3, align 4
  br label %70

20:                                               ; preds = %2
  %21 = load ptr, ptr %4, align 8, !tbaa !4
  %22 = getelementptr inbounds nuw %struct.lxb_html_tree, ptr %21, i32 0, i32 10
  %23 = load i8, ptr %22, align 1, !tbaa !28, !range !29, !noundef !30
  %24 = trunc i8 %23 to i1
  br i1 %24, label %25, label %55

25:                                               ; preds = %20
  call void @llvm.lifetime.start.p0(i64 8, ptr %6) #5
  %26 = load ptr, ptr %5, align 8, !tbaa !9
  %27 = getelementptr inbounds nuw %struct.lexbor_str_t, ptr %26, i32 0, i32 0
  %28 = load ptr, ptr %27, align 8, !tbaa !31
  store ptr %28, ptr %6, align 8, !tbaa !33
  call void @llvm.lifetime.start.p0(i64 8, ptr %7) #5
  %29 = load ptr, ptr %5, align 8, !tbaa !9
  %30 = getelementptr inbounds nuw %struct.lexbor_str_t, ptr %29, i32 0, i32 0
  %31 = load ptr, ptr %30, align 8, !tbaa !31
  %32 = load ptr, ptr %5, align 8, !tbaa !9
  %33 = getelementptr inbounds nuw %struct.lexbor_str_t, ptr %32, i32 0, i32 1
  %34 = load i64, ptr %33, align 8, !tbaa !34
  %35 = getelementptr inbounds nuw i8, ptr %31, i64 %34
  store ptr %35, ptr %7, align 8, !tbaa !33
  br label %36

36:                                               ; preds = %51, %25
  %37 = load ptr, ptr %6, align 8, !tbaa !33
  %38 = load ptr, ptr %7, align 8, !tbaa !33
  %39 = icmp ne ptr %37, %38
  br i1 %39, label %40, label %54

40:                                               ; preds = %36
  %41 = load ptr, ptr %6, align 8, !tbaa !33
  %42 = load i8, ptr %41, align 1, !tbaa !35
  %43 = zext i8 %42 to i64
  %44 = getelementptr inbounds nuw [256 x i8], ptr @lexbor_tokenizer_chars_map, i64 0, i64 %43
  %45 = load i8, ptr %44, align 1, !tbaa !35
  %46 = zext i8 %45 to i32
  %47 = icmp ne i32 %46, 2
  br i1 %47, label %48, label %51

48:                                               ; preds = %40
  %49 = load ptr, ptr %4, align 8, !tbaa !4
  %50 = getelementptr inbounds nuw %struct.lxb_html_tree, ptr %49, i32 0, i32 10
  store i8 0, ptr %50, align 1, !tbaa !28
  br label %54

51:                                               ; preds = %40
  %52 = load ptr, ptr %6, align 8, !tbaa !33
  %53 = getelementptr inbounds nuw i8, ptr %52, i32 1
  store ptr %53, ptr %6, align 8, !tbaa !33
  br label %36

54:                                               ; preds = %48, %36
  call void @llvm.lifetime.end.p0(i64 8, ptr %7) #5
  call void @llvm.lifetime.end.p0(i64 8, ptr %6) #5
  br label %55

55:                                               ; preds = %54, %20
  %56 = load ptr, ptr %4, align 8, !tbaa !4
  %57 = load ptr, ptr %5, align 8, !tbaa !9
  %58 = call i32 @lxb_html_tree_insert_character_for_data(ptr noundef %56, ptr noundef %57, ptr noundef null)
  %59 = load ptr, ptr %4, align 8, !tbaa !4
  %60 = getelementptr inbounds nuw %struct.lxb_html_tree, ptr %59, i32 0, i32 18
  store i32 %58, ptr %60, align 8, !tbaa !25
  %61 = load ptr, ptr %4, align 8, !tbaa !4
  %62 = getelementptr inbounds nuw %struct.lxb_html_tree, ptr %61, i32 0, i32 18
  %63 = load i32, ptr %62, align 8, !tbaa !25
  %64 = icmp ne i32 %63, 0
  br i1 %64, label %65, label %69

65:                                               ; preds = %55
  %66 = load ptr, ptr %4, align 8, !tbaa !4
  %67 = getelementptr inbounds nuw %struct.lxb_html_tree, ptr %66, i32 0, i32 18
  %68 = load i32, ptr %67, align 8, !tbaa !25
  store i32 %68, ptr %3, align 4
  br label %70

69:                                               ; preds = %55
  store i32 0, ptr %3, align 4
  br label %70

70:                                               ; preds = %69, %65, %16
  %71 = load i32, ptr %3, align 4
  ret i32 %71
}