; Function Attrs: nounwind uwtable
define hidden i32 @lxb_html_tree_insertion_mode_in_body_text_append(ptr noundef %0, ptr noundef %1) local_unnamed_addr #0 {
  %3 = tail call i32 @lxb_html_tree_active_formatting_reconstruct_elements(ptr noundef %0) #6
  %4 = getelementptr inbounds nuw i8, ptr %0, i64 112
  store i32 %3, ptr %4, align 8, !tbaa !22
  %.not = icmp eq i32 %3, 0
  br i1 %.not, label %5, label %22

5:                                                ; preds = %2
  %6 = getelementptr inbounds nuw i8, ptr %0, i64 81
  %7 = load i8, ptr %6, align 1, !tbaa !25, !range !26, !noundef !27
  %8 = trunc nuw i8 %7 to i1
  br i1 %8, label %9, label %.loopexit

9:                                                ; preds = %5
  %10 = load ptr, ptr %1, align 8, !tbaa !28
  %11 = getelementptr inbounds nuw i8, ptr %1, i64 8
  %12 = load i64, ptr %11, align 8, !tbaa !30
  %13 = getelementptr inbounds nuw i8, ptr %10, i64 %12
  %.not2124 = icmp samesign eq i64 %12, 0
  br i1 %.not2124, label %.loopexit, label %.lr.ph

14:                                               ; preds = %.lr.ph
  %15 = getelementptr inbounds nuw i8, ptr %.01825, i64 1
  %.not21 = icmp eq ptr %15, %13
  br i1 %.not21, label %.loopexit, label %.lr.ph

.lr.ph:                                           ; preds = %9, %14
  %.01825 = phi ptr [ %15, %14 ], [ %10, %9 ]
  %16 = load i8, ptr %.01825, align 1, !tbaa !31
  %17 = zext i8 %16 to i64
  %18 = getelementptr inbounds nuw [256 x i8], ptr @lexbor_tokenizer_chars_map, i64 0, i64 %17
  %19 = load i8, ptr %18, align 1, !tbaa !31
  %.not22 = icmp eq i8 %19, 2
  br i1 %.not22, label %14, label %20

20:                                               ; preds = %.lr.ph
  store i8 0, ptr %6, align 1, !tbaa !25
  br label %.loopexit

.loopexit:                                        ; preds = %14, %9, %20, %5
  %21 = tail call i32 @lxb_html_tree_insert_character_for_data(ptr noundef %0, ptr noundef %1, ptr noundef null) #6
  store i32 %21, ptr %4, align 8, !tbaa !22
  br label %22

22:                                               ; preds = %.loopexit, %2
  %.0 = phi i32 [ %3, %2 ], [ %21, %.loopexit ]
  ret i32 %.0
}